; Function Attrs: mustprogress uwtable
define void @_ZN18ConversationAction13setPacketInfoEP12_packet_info(ptr noundef nonnull align 8 dereferenceable(52) %0, ptr noundef %1) local_unnamed_addr #0 align 2 {
  %3 = alloca %class.QByteArray, align 16
  %4 = getelementptr inbounds i8, ptr %0, i64 16
  %5 = load ptr, ptr %4, align 8
  %6 = icmp ne ptr %5, null
  %7 = icmp ne ptr %1, null
  %or.cond = and i1 %7, %6
  br i1 %or.cond, label %8, label %_ZN10QByteArrayD2Ev.exit

8:                                                ; preds = %2
  %9 = getelementptr inbounds i8, ptr %5, i64 16
  %10 = load ptr, ptr %9, align 8
  %11 = getelementptr inbounds i8, ptr %5, i64 32
  %12 = load ptr, ptr %11, align 8
  %13 = tail call noundef i32 %10(ptr noundef nonnull %1, ptr noundef %12)
  %.not = icmp eq i32 %13, 0
  br i1 %.not, label %_ZN10QByteArrayD2Ev.exit, label %14

14:                                               ; preds = %8
  %15 = load ptr, ptr %4, align 8
  %16 = getelementptr inbounds i8, ptr %15, i64 24
  %17 = load ptr, ptr %16, align 8
  %18 = getelementptr inbounds i8, ptr %15, i64 32
  %19 = load ptr, ptr %18, align 8
  %20 = tail call noundef ptr %17(ptr noundef nonnull %1, ptr noundef %19)
  call void @_Z24gchar_free_to_qbytearrayPc(ptr dead_on_unwind nonnull writable sret(%class.QByteArray) align 8 %3, ptr noundef %20)
  %21 = getelementptr inbounds i8, ptr %0, i64 24
  %22 = load ptr, ptr %21, align 8
  %23 = getelementptr inbounds i8, ptr %0, i64 32
  %24 = getelementptr inbounds i8, ptr %3, i64 8
  %25 = load ptr, ptr %23, align 8
  %26 = load <2 x ptr>, ptr %3, align 16
  store ptr %22, ptr %3, align 16
  store <2 x ptr> %26, ptr %21, align 8
  store ptr %25, ptr %24, align 8
  %27 = getelementptr inbounds i8, ptr %0, i64 40
  %28 = getelementptr inbounds i8, ptr %3, i64 16
  %29 = load i64, ptr %27, align 8
  %30 = load i64, ptr %28, align 16
  store i64 %30, ptr %27, align 8
  store i64 %29, ptr %28, align 16
  %.not.i.i.i = icmp eq ptr %22, null
  br i1 %.not.i.i.i, label %_ZN10QByteArrayD2Ev.exit, label %_ZN17QArrayDataPointerIcE5derefEv.exit.i.i

_ZN17QArrayDataPointerIcE5derefEv.exit.i.i:       ; preds = %14
  %31 = atomicrmw sub ptr %22, i32 1 seq_cst, align 4
  %.not.i.i = icmp eq i32 %31, 1
  br i1 %.not.i.i, label %32, label %_ZN10QByteArrayD2Ev.exit

32:                                               ; preds = %_ZN17QArrayDataPointerIcE5derefEv.exit.i.i
  %33 = load ptr, ptr %3, align 16
  call void @_ZN10QArrayData10deallocateEPS_xx(ptr noundef %33, i64 noundef 1, i64 noundef 8) #7
  br label %_ZN10QByteArrayD2Ev.exit

_ZN10QByteArrayD2Ev.exit:                         ; preds = %32, %_ZN17QArrayDataPointerIcE5derefEv.exit.i.i, %14, %8, %2
  %.0.shrunk = phi i1 [ false, %8 ], [ false, %2 ], [ true, %14 ], [ true, %_ZN17QArrayDataPointerIcE5derefEv.exit.i.i ], [ true, %32 ]
  call void @_ZN7QAction10setEnabledEb(ptr noundef nonnull align 8 dereferenceable(16) %0, i1 noundef zeroext %.0.shrunk)
  %34 = getelementptr inbounds i8, ptr %0, i64 8
  %35 = load ptr, ptr %34, align 8
  %36 = getelementptr inbounds i8, ptr %35, i64 16
  %37 = load ptr, ptr %36, align 8
  %38 = call noundef ptr @_ZNK11QMetaObject4castEPK7QObject(ptr noundef nonnull align 8 dereferenceable(56) @_ZN5QMenu16staticMetaObjectE, ptr noundef %37)
  %39 = getelementptr inbounds i8, ptr %0, i64 48
  %40 = load i32, ptr %39, align 8
  %41 = icmp sgt i32 %40, -1
  %42 = icmp ne ptr %38, null
  %or.cond3 = and i1 %42, %41
  br i1 %or.cond3, label %43, label %44

43:                                               ; preds = %_ZN10QByteArrayD2Ev.exit
  call void @_ZN7QWidget10setEnabledEb(ptr noundef nonnull align 8 dereferenceable(40) %38, i1 noundef zeroext %.0.shrunk)
  br label %44

44:                                               ; preds = %_ZN10QByteArrayD2Ev.exit, %43
  ret void
}